; Function Attrs: nounwind uwtable
define internal range(i32 0, 2) i32 @extensionSupportedGLX(ptr noundef %0) #0 {
  %2 = load ptr, ptr getelementptr inbounds nuw (i8, ptr @_glfw, i64 143448), align 8, !tbaa !102
  %3 = load ptr, ptr getelementptr inbounds nuw (i8, ptr @_glfw, i64 137840), align 8, !tbaa !109
  %4 = load i32, ptr getelementptr inbounds nuw (i8, ptr @_glfw, i64 137848), align 8, !tbaa !111
  %5 = tail call ptr %2(ptr noundef %3, i32 noundef %4) #4
  %.not = icmp eq ptr %5, null
  br i1 %.not, label %8, label %6

6:                                                ; preds = %1
  %7 = tail call i32 @_glfwStringInExtensionString(ptr noundef %0, ptr noundef nonnull %5) #4
  %.not4 = icmp eq i32 %7, 0
  br i1 %.not4, label %8, label %9

8:                                                ; preds = %6, %1
  br label %9

9:                                                ; preds = %6, %8
  %.0 = phi i32 [ 0, %8 ], [ 1, %6 ]
  ret i32 %.0
}